; Function Attrs: mustprogress null_pointer_is_valid sspstrong uwtable
define noundef zeroext i1 @_Z15qActionLessThanPK7QActionS1_(ptr noundef %0, ptr noundef %1) local_unnamed_addr #0 personality ptr @__gxx_personality_v0 {
  %3 = alloca %class.QString, align 8
  %4 = alloca %class.QString, align 8
  call void @llvm.lifetime.start.p0(i64 24, ptr nonnull %3) #21
  call void @_ZNK7QAction4textEv(ptr dead_on_unwind nonnull writable sret(%class.QString) align 8 %3, ptr noundef align 8 dereferenceable_or_null(16) %0)
  call void @llvm.lifetime.start.p0(i64 24, ptr nonnull %4) #21
  invoke void @_ZNK7QAction4textEv(ptr dead_on_unwind nonnull writable sret(%class.QString) align 8 %4, ptr noundef align 8 dereferenceable_or_null(16) %1)
          to label %5 unwind label %16

5:                                                ; preds = %2
  %6 = call noundef i32 @_ZNK7QString7compareERKS_N2Qt15CaseSensitivityE(ptr noundef nonnull align 8 dereferenceable_or_null(24) %3, ptr noundef nonnull align 8 dereferenceable(24) %4, i32 noundef 1) #21
  %7 = load ptr, ptr %4, align 8
  %.not.i.i.i = icmp eq ptr %7, null
  br i1 %.not.i.i.i, label %_ZN7QStringD2Ev.exit, label %_ZN17QArrayDataPointerIDsE5derefEv.exit.i.i

_ZN17QArrayDataPointerIDsE5derefEv.exit.i.i:      ; preds = %5
  %8 = atomicrmw sub ptr %7, i32 1 seq_cst, align 4
  %.not.i.i = icmp eq i32 %8, 1
  br i1 %.not.i.i, label %9, label %_ZN7QStringD2Ev.exit

9:                                                ; preds = %_ZN17QArrayDataPointerIDsE5derefEv.exit.i.i
  %10 = load ptr, ptr %4, align 8
  call void @_ZN10QArrayData10deallocateEPS_xx(ptr noundef %10, i64 noundef 2, i64 noundef 8) #21
  br label %_ZN7QStringD2Ev.exit

_ZN7QStringD2Ev.exit:                             ; preds = %5, %_ZN17QArrayDataPointerIDsE5derefEv.exit.i.i, %9
  call void @llvm.lifetime.end.p0(i64 24, ptr nonnull %4) #21
  %11 = load ptr, ptr %3, align 8
  %.not.i.i.i3 = icmp eq ptr %11, null
  br i1 %.not.i.i.i3, label %_ZN7QStringD2Ev.exit6, label %_ZN17QArrayDataPointerIDsE5derefEv.exit.i.i4

_ZN17QArrayDataPointerIDsE5derefEv.exit.i.i4:     ; preds = %_ZN7QStringD2Ev.exit
  %12 = atomicrmw sub ptr %11, i32 1 seq_cst, align 4
  %.not.i.i5 = icmp eq i32 %12, 1
  br i1 %.not.i.i5, label %13, label %_ZN7QStringD2Ev.exit6

13:                                               ; preds = %_ZN17QArrayDataPointerIDsE5derefEv.exit.i.i4
  %14 = load ptr, ptr %3, align 8
  call void @_ZN10QArrayData10deallocateEPS_xx(ptr noundef %14, i64 noundef 2, i64 noundef 8) #21
  br label %_ZN7QStringD2Ev.exit6

_ZN7QStringD2Ev.exit6:                            ; preds = %_ZN7QStringD2Ev.exit, %_ZN17QArrayDataPointerIDsE5derefEv.exit.i.i4, %13
  %15 = icmp slt i32 %6, 0
  call void @llvm.lifetime.end.p0(i64 24, ptr nonnull %3) #21
  ret i1 %15

16:                                               ; preds = %2
  %17 = landingpad { ptr, i32 }
          cleanup
  call void @llvm.lifetime.end.p0(i64 24, ptr nonnull %4) #21
  %18 = load ptr, ptr %3, align 8
  %.not.i.i.i7 = icmp eq ptr %18, null
  br i1 %.not.i.i.i7, label %_ZN7QStringD2Ev.exit10, label %_ZN17QArrayDataPointerIDsE5derefEv.exit.i.i8

_ZN17QArrayDataPointerIDsE5derefEv.exit.i.i8:     ; preds = %16
  %19 = atomicrmw sub ptr %18, i32 1 seq_cst, align 4
  %.not.i.i9 = icmp eq i32 %19, 1
  br i1 %.not.i.i9, label %20, label %_ZN7QStringD2Ev.exit10

20:                                               ; preds = %_ZN17QArrayDataPointerIDsE5derefEv.exit.i.i8
  %21 = load ptr, ptr %3, align 8
  call void @_ZN10QArrayData10deallocateEPS_xx(ptr noundef %21, i64 noundef 2, i64 noundef 8) #21
  br label %_ZN7QStringD2Ev.exit10

_ZN7QStringD2Ev.exit10:                           ; preds = %16, %_ZN17QArrayDataPointerIDsE5derefEv.exit.i.i8, %20
  call void @llvm.lifetime.end.p0(i64 24, ptr nonnull %3) #21
  resume { ptr, i32 } %17
}